; Function Attrs: mustprogress nounwind uwtable
define hidden void @_ZN6hermes2vm8JSRegExp13_finalizeImplEPNS0_6GCCellERNS0_7HadesGCE(ptr nocapture noundef readonly %cell, ptr noundef nonnull align 8 dereferenceable(8152) %gc) #0 align 2 {
entry:
  %bytecode_ = getelementptr inbounds i8, ptr %cell, i64 24
  %0 = load ptr, ptr %bytecode_, align 8
  %tobool.not = icmp eq ptr %0, null
  br i1 %tobool.not, label %if.end, label %if.then

if.then:                                          ; preds = %entry
  %idTracker_.i = getelementptr inbounds i8, ptr %gc, i64 488
  tail call void @_ZN6hermes2vm6GCBase9IDTracker13untrackNativeEPKv(ptr noundef nonnull align 8 dereferenceable(192) %idTracker_.i, ptr noundef nonnull %0) #19
  %.pre = load ptr, ptr %bytecode_, align 8
  br label %if.end

if.end:                                           ; preds = %if.then, %entry
  %1 = phi ptr [ %.pre, %if.then ], [ null, %entry ]
  tail call void @free(ptr noundef %1) #19
  ret void
}